target datalayout = "e-m:e-p270:32:32-p271:32:32-p272:64:64-i64:64-i128:128-f80:128-n8:16:32:64-S128"
target triple = "x86_64-pc-linux-gnu"

%struct.expert_field = type { i32, i32 }

@hf_ldp_tlv_fec_gen_aai_globalid = internal global i32 0, align 4
@hf_ldp_tlv_fec_gen_aai_prefix = internal global i32 0, align 4
@hf_ldp_tlv_fec_gen_aai_ac_id = internal global i32 0, align 4
@ett_ldp_gen_aai_type2 = internal global i32 0, align 4
@ei_ldp_inv_length = internal global %struct.expert_field zeroinitializer, align 4
@.str.1028 = private unnamed_addr constant [4 x i8] c"AAI\00", align 1
@.str.1029 = private unnamed_addr constant [77 x i8] c"Error processing AAI Parameter: length is %d, should be 12 bytes for Type 2.\00", align 1

; Function Attrs: null_pointer_is_valid sspstrong uwtable
define internal void @dissect_genpwid_fec_aai_type2_parameter(ptr noundef %0, ptr noundef %1, i32 noundef %2, ptr noundef %3, i32 noundef %4) #0 {
  %6 = alloca ptr, align 8
  %7 = alloca ptr, align 8
  %8 = alloca i32, align 4
  %9 = alloca ptr, align 8
  %10 = alloca i32, align 4
  %11 = alloca ptr, align 8
  %12 = alloca i32, align 4
  store ptr %0, ptr %6, align 8
  store ptr %1, ptr %7, align 8
  store i32 %2, ptr %8, align 4
  store ptr %3, ptr %9, align 8
  store i32 %4, ptr %10, align 4
  call void @llvm.lifetime.start.p0(i64 8, ptr %11) #7
  %13 = load ptr, ptr %9, align 8
  %14 = load ptr, ptr %6, align 8
  %15 = load i32, ptr %8, align 4
  %16 = load i32, ptr %10, align 4
  %17 = load i32, ptr @ett_ldp_gen_aai_type2, align 4
  %18 = call ptr @proto_tree_add_subtree(ptr noundef %13, ptr noundef %14, i32 noundef %15, i32 noundef %16, i32 noundef %17, ptr noundef null, ptr noundef @.str.1028)
  store ptr %18, ptr %11, align 8
  %19 = load i32, ptr %10, align 4
  %20 = icmp ne i32 %19, 12
  br i1 %20, label %21, label %29

21:                                               ; preds = %5
  %22 = load ptr, ptr %9, align 8
  %23 = load ptr, ptr %7, align 8
  %24 = load ptr, ptr %6, align 8
  %25 = load i32, ptr %8, align 4
  %26 = load i32, ptr %10, align 4
  %27 = load i32, ptr %10, align 4
  %28 = call ptr (ptr, ptr, ptr, ptr, i32, i32, ptr, ...) @proto_tree_add_expert_format(ptr noundef %22, ptr noundef %23, ptr noundef @ei_ldp_inv_length, ptr noundef %24, i32 noundef %25, i32 noundef %26, ptr noundef @.str.1029, i32 noundef %27)
  store i32 1, ptr %12, align 4
  br label %47

29:                                               ; preds = %5
  %30 = load ptr, ptr %11, align 8
  %31 = load i32, ptr @hf_ldp_tlv_fec_gen_aai_globalid, align 4
  %32 = load ptr, ptr %6, align 8
  %33 = load i32, ptr %8, align 4
  %34 = call ptr @proto_tree_add_item(ptr noundef %30, i32 noundef %31, ptr noundef %32, i32 noundef %33, i32 noundef 4, i32 noundef 0)
  %35 = load ptr, ptr %11, align 8
  %36 = load i32, ptr @hf_ldp_tlv_fec_gen_aai_prefix, align 4
  %37 = load ptr, ptr %6, align 8
  %38 = load i32, ptr %8, align 4
  %39 = add i32 %38, 4
  %40 = call ptr @proto_tree_add_item(ptr noundef %35, i32 noundef %36, ptr noundef %37, i32 noundef %39, i32 noundef 4, i32 noundef 0)
  %41 = load ptr, ptr %11, align 8
  %42 = load i32, ptr @hf_ldp_tlv_fec_gen_aai_ac_id, align 4
  %43 = load ptr, ptr %6, align 8
  %44 = load i32, ptr %8, align 4
  %45 = add i32 %44, 4
  %46 = call ptr @proto_tree_add_item(ptr noundef %41, i32 noundef %42, ptr noundef %43, i32 noundef %45, i32 noundef 4, i32 noundef 0)
  store i32 0, ptr %12, align 4
  br label %47

47:                                               ; preds = %29, %21
  call void @llvm.lifetime.end.p0(i64 8, ptr %11) #7
  %48 = load i32, ptr %12, align 4
  switch i32 %48, label %50 [
    i32 0, label %49
    i32 1, label %49
  ]

49:                                               ; preds = %47, %47
  ret void

50:                                               ; preds = %47
  unreachable
}