; Function Attrs: null_pointer_is_valid sspstrong uwtable
define internal fastcc void @dissect_genpwid_fec_aai_type2_parameter(ptr noundef %0, ptr noundef %1, i32 noundef %2, ptr noundef %3, i32 noundef range(i32 1, 256) %4) unnamed_addr #0 {
  %6 = load i32, ptr @ett_ldp_gen_aai_type2, align 4
  %7 = tail call ptr @proto_tree_add_subtree(ptr noundef %3, ptr noundef %0, i32 noundef %2, i32 noundef %4, i32 noundef %6, ptr noundef null, ptr noundef nonnull @.str.1028)
  %.not = icmp eq i32 %4, 12
  br i1 %.not, label %10, label %8

8:                                                ; preds = %5
  %9 = tail call ptr (ptr, ptr, ptr, ptr, i32, i32, ptr, ...) @proto_tree_add_expert_format(ptr noundef %3, ptr noundef %1, ptr noundef nonnull @ei_ldp_inv_length, ptr noundef %0, i32 noundef %2, i32 noundef %4, ptr noundef nonnull @.str.1029, i32 noundef %4)
  br label %18

10:                                               ; preds = %5
  %11 = load i32, ptr @hf_ldp_tlv_fec_gen_aai_globalid, align 4
  %12 = tail call ptr @proto_tree_add_item(ptr noundef %7, i32 noundef %11, ptr noundef %0, i32 noundef %2, i32 noundef 4, i32 noundef 0)
  %13 = load i32, ptr @hf_ldp_tlv_fec_gen_aai_prefix, align 4
  %14 = add i32 %2, 4
  %15 = tail call ptr @proto_tree_add_item(ptr noundef %7, i32 noundef %13, ptr noundef %0, i32 noundef %14, i32 noundef 4, i32 noundef 0)
  %16 = load i32, ptr @hf_ldp_tlv_fec_gen_aai_ac_id, align 4
  %17 = tail call ptr @proto_tree_add_item(ptr noundef %7, i32 noundef %16, ptr noundef %0, i32 noundef %14, i32 noundef 4, i32 noundef 0)
  br label %18

18:                                               ; preds = %10, %8
  ret void
}